; Function Attrs: nounwind uwtable
define dso_local range(i32 -1, 1) i32 @rdbLoadBinaryFloatValue(ptr noundef %0, ptr noundef %1) local_unnamed_addr #0 {
  %3 = getelementptr inbounds nuw i8, ptr %0, i64 48
  %4 = load i64, ptr %3, align 8, !tbaa !53
  %5 = and i64 %4, 5
  %.not.i = icmp eq i64 %5, 0
  br i1 %.not.i, label %.preheader.i, label %rioRead.exit

.preheader.i:                                     ; preds = %2
  %6 = getelementptr inbounds nuw i8, ptr %0, i64 64
  %7 = getelementptr inbounds nuw i8, ptr %0, i64 32
  %8 = getelementptr inbounds nuw i8, ptr %0, i64 56
  br label %9

9:                                                ; preds = %21, %.preheader.i
  %.02539.i = phi i64 [ 4, %.preheader.i ], [ %23, %21 ]
  %.02738.i = phi ptr [ %1, %.preheader.i ], [ %22, %21 ]
  %10 = load i64, ptr %6, align 8, !tbaa !55
  %.not32.not.i = icmp eq i64 %10, 0
  %11 = tail call i64 @llvm.umin.i64(i64 %10, i64 %.02539.i)
  %12 = select i1 %.not32.not.i, i64 %.02539.i, i64 %11
  %13 = load ptr, ptr %0, align 8, !tbaa !60
  %14 = tail call i64 %13(ptr noundef nonnull %0, ptr noundef %.02738.i, i64 noundef %12) #23
  %15 = icmp eq i64 %14, 0
  br i1 %15, label %.thread.i, label %18

.thread.i:                                        ; preds = %9
  %16 = load i64, ptr %3, align 8, !tbaa !53
  %17 = or i64 %16, 1
  store i64 %17, ptr %3, align 8, !tbaa !53
  br label %rioRead.exit

18:                                               ; preds = %9
  %19 = load ptr, ptr %7, align 8, !tbaa !56
  %.not33.i = icmp eq ptr %19, null
  br i1 %.not33.i, label %21, label %20

20:                                               ; preds = %18
  tail call void %19(ptr noundef nonnull %0, ptr noundef %.02738.i, i64 noundef %12) #23
  br label %21

21:                                               ; preds = %20, %18
  %22 = getelementptr inbounds nuw i8, ptr %.02738.i, i64 %12
  %23 = sub i64 %.02539.i, %12
  %24 = load i64, ptr %8, align 8, !tbaa !58
  %25 = add i64 %24, %12
  store i64 %25, ptr %8, align 8, !tbaa !58
  %.not31.i = icmp eq i64 %23, 0
  br i1 %.not31.i, label %rioRead.exit, label %9

rioRead.exit:                                     ; preds = %21, %.thread.i, %2
  %26 = phi i32 [ -1, %2 ], [ -1, %.thread.i ], [ 0, %21 ]
  ret i32 %26
}